target datalayout = "e-m:e-p270:32:32-p271:32:32-p272:64:64-i64:64-i128:128-f80:128-n8:16:32:64-S128"
target triple = "x86_64-pc-linux-gnu"

%struct.__loadu_si128 = type { <2 x i64> }
%struct.__mm_storel_epi64_struct = type { i64 }

; Function Attrs: alwaysinline nounwind uwtable
define internal void @_mm_storel_epi64(ptr noundef %0, <2 x i64> noundef %1) #4 {
  %3 = alloca ptr, align 8
  %4 = alloca <2 x i64>, align 16
  store ptr %0, ptr %3, align 8, !tbaa !3
  store <2 x i64> %1, ptr %4, align 16, !tbaa !11
  %5 = load <2 x i64>, ptr %4, align 16, !tbaa !11
  %6 = extractelement <2 x i64> %5, i32 0
  %7 = load ptr, ptr %3, align 8, !tbaa !3
  %8 = getelementptr inbounds nuw %struct.__mm_storel_epi64_struct, ptr %7, i32 0, i32 0
  store i64 %6, ptr %8, align 1, !tbaa !11
  ret void
}

; Function Attrs: alwaysinline nounwind uwtable
define internal <2 x i64> @_mm_or_si128(<2 x i64> noundef %0, <2 x i64> noundef %1) #4 {
  %3 = alloca <2 x i64>, align 16
  %4 = alloca <2 x i64>, align 16
  store <2 x i64> %0, ptr %3, align 16, !tbaa !11
  store <2 x i64> %1, ptr %4, align 16, !tbaa !11
  %5 = load <2 x i64>, ptr %3, align 16, !tbaa !11
  %6 = load <2 x i64>, ptr %4, align 16, !tbaa !11
  %7 = or <2 x i64> %5, %6
  ret <2 x i64> %7
}

; Function Attrs: alwaysinline nounwind uwtable
define internal <2 x i64> @_mm_srli_epi64(<2 x i64> noundef %0, i32 noundef %1) #4 {
  %3 = alloca <2 x i64>, align 16
  %4 = alloca i32, align 4
  store <2 x i64> %0, ptr %3, align 16, !tbaa !11
  store i32 %1, ptr %4, align 4, !tbaa !9
  %5 = load <2 x i64>, ptr %3, align 16, !tbaa !11
  %6 = load i32, ptr %4, align 4, !tbaa !9
  %7 = call <2 x i64> @llvm.x86.sse2.psrli.q(<2 x i64> %5, i32 %6)
  ret <2 x i64> %7
}

; Function Attrs: alwaysinline nounwind uwtable
define internal <2 x i64> @_mm_and_si128(<2 x i64> noundef %0, <2 x i64> noundef %1) #4 {
  %3 = alloca <2 x i64>, align 16
  %4 = alloca <2 x i64>, align 16
  store <2 x i64> %0, ptr %3, align 16, !tbaa !11
  store <2 x i64> %1, ptr %4, align 16, !tbaa !11
  %5 = load <2 x i64>, ptr %3, align 16, !tbaa !11
  %6 = load <2 x i64>, ptr %4, align 16, !tbaa !11
  %7 = and <2 x i64> %5, %6
  ret <2 x i64> %7
}

; Function Attrs: alwaysinline nounwind uwtable
define internal <2 x i64> @_mm_loadu_si128(ptr noundef %0) #4 {
  %2 = alloca ptr, align 8
  store ptr %0, ptr %2, align 8, !tbaa !3
  %3 = load ptr, ptr %2, align 8, !tbaa !3
  %4 = getelementptr inbounds nuw %struct.__loadu_si128, ptr %3, i32 0, i32 0
  %5 = load <2 x i64>, ptr %4, align 1, !tbaa !11
  ret <2 x i64> %5
}

; Function Attrs: alwaysinline nounwind uwtable
define internal <2 x i64> @_mm_set_epi32(i32 noundef %0, i32 noundef %1, i32 noundef %2, i32 noundef %3) #4 {
  %5 = alloca i32, align 4
  %6 = alloca i32, align 4
  %7 = alloca i32, align 4
  %8 = alloca i32, align 4
  %9 = alloca <4 x i32>, align 16
  store i32 %0, ptr %5, align 4, !tbaa !9
  store i32 %1, ptr %6, align 4, !tbaa !9
  store i32 %2, ptr %7, align 4, !tbaa !9
  store i32 %3, ptr %8, align 4, !tbaa !9
  %10 = load i32, ptr %8, align 4, !tbaa !9
  %11 = insertelement <4 x i32> poison, i32 %10, i32 0
  %12 = load i32, ptr %7, align 4, !tbaa !9
  %13 = insertelement <4 x i32> %11, i32 %12, i32 1
  %14 = load i32, ptr %6, align 4, !tbaa !9
  %15 = insertelement <4 x i32> %13, i32 %14, i32 2
  %16 = load i32, ptr %5, align 4, !tbaa !9
  %17 = insertelement <4 x i32> %15, i32 %16, i32 3
  store <4 x i32> %17, ptr %9, align 16, !tbaa !11
  %18 = load <4 x i32>, ptr %9, align 16, !tbaa !11
  %19 = bitcast <4 x i32> %18 to <2 x i64>
  ret <2 x i64> %19
}

; Function Attrs: nounwind uwtable
define internal void @ConvertBGRAToBGR_SSE2(ptr noalias noundef %0, i32 noundef %1, ptr noalias noundef %2) #1 {
  %4 = alloca ptr, align 8
  %5 = alloca i32, align 4
  %6 = alloca ptr, align 8
  %7 = alloca <2 x i64>, align 16
  %8 = alloca <2 x i64>, align 16
  %9 = alloca ptr, align 8
  %10 = alloca ptr, align 8
  %11 = alloca <2 x i64>, align 16
  %12 = alloca <2 x i64>, align 16
  %13 = alloca <2 x i64>, align 16
  %14 = alloca <2 x i64>, align 16
  %15 = alloca <2 x i64>, align 16
  %16 = alloca <2 x i64>, align 16
  %17 = alloca <2 x i64>, align 16
  %18 = alloca <2 x i64>, align 16
  %19 = alloca <2 x i64>, align 16
  %20 = alloca <2 x i64>, align 16
  %21 = alloca <2 x i64>, align 16
  %22 = alloca <2 x i64>, align 16
  store ptr %0, ptr %4, align 8, !tbaa !7
  store i32 %1, ptr %5, align 4, !tbaa !9
  store ptr %2, ptr %6, align 8, !tbaa !33
  call void @llvm.lifetime.start.p0(i64 16, ptr %7) #9
  %23 = call <2 x i64> @_mm_set_epi32(i32 noundef 0, i32 noundef 16777215, i32 noundef 0, i32 noundef 16777215)
  store <2 x i64> %23, ptr %7, align 16, !tbaa !11
  call void @llvm.lifetime.start.p0(i64 16, ptr %8) #9
  %24 = call <2 x i64> @_mm_set_epi32(i32 noundef 16777215, i32 noundef 0, i32 noundef 16777215, i32 noundef 0)
  store <2 x i64> %24, ptr %8, align 16, !tbaa !11
  call void @llvm.lifetime.start.p0(i64 8, ptr %9) #9
  %25 = load ptr, ptr %4, align 8, !tbaa !7
  store ptr %25, ptr %9, align 8, !tbaa !3
  call void @llvm.lifetime.start.p0(i64 8, ptr %10) #9
  %26 = load ptr, ptr %6, align 8, !tbaa !33
  %27 = load i32, ptr %5, align 4, !tbaa !9
  %28 = mul nsw i32 %27, 3
  %29 = sext i32 %28 to i64
  %30 = getelementptr inbounds i8, ptr %26, i64 %29
  store ptr %30, ptr %10, align 8, !tbaa !33
  br label %31

31:                                               ; preds = %36, %3
  %32 = load ptr, ptr %6, align 8, !tbaa !33
  %33 = getelementptr inbounds i8, ptr %32, i64 26
  %34 = load ptr, ptr %10, align 8, !tbaa !33
  %35 = icmp ule ptr %33, %34
  br i1 %35, label %36, label %89

36:                                               ; preds = %31
  call void @llvm.lifetime.start.p0(i64 16, ptr %11) #9
  %37 = load ptr, ptr %9, align 8, !tbaa !3
  %38 = getelementptr inbounds nuw <2 x i64>, ptr %37, i32 1
  store ptr %38, ptr %9, align 8, !tbaa !3
  %39 = call <2 x i64> @_mm_loadu_si128(ptr noundef %37)
  store <2 x i64> %39, ptr %11, align 16, !tbaa !11
  call void @llvm.lifetime.start.p0(i64 16, ptr %12) #9
  %40 = load ptr, ptr %9, align 8, !tbaa !3
  %41 = getelementptr inbounds nuw <2 x i64>, ptr %40, i32 1
  store ptr %41, ptr %9, align 8, !tbaa !3
  %42 = call <2 x i64> @_mm_loadu_si128(ptr noundef %40)
  store <2 x i64> %42, ptr %12, align 16, !tbaa !11
  call void @llvm.lifetime.start.p0(i64 16, ptr %13) #9
  %43 = load <2 x i64>, ptr %11, align 16, !tbaa !11
  %44 = load <2 x i64>, ptr %7, align 16, !tbaa !11
  %45 = call <2 x i64> @_mm_and_si128(<2 x i64> noundef %43, <2 x i64> noundef %44)
  store <2 x i64> %45, ptr %13, align 16, !tbaa !11
  call void @llvm.lifetime.start.p0(i64 16, ptr %14) #9
  %46 = load <2 x i64>, ptr %12, align 16, !tbaa !11
  %47 = load <2 x i64>, ptr %7, align 16, !tbaa !11
  %48 = call <2 x i64> @_mm_and_si128(<2 x i64> noundef %46, <2 x i64> noundef %47)
  store <2 x i64> %48, ptr %14, align 16, !tbaa !11
  call void @llvm.lifetime.start.p0(i64 16, ptr %15) #9
  %49 = load <2 x i64>, ptr %11, align 16, !tbaa !11
  %50 = load <2 x i64>, ptr %8, align 16, !tbaa !11
  %51 = call <2 x i64> @_mm_and_si128(<2 x i64> noundef %49, <2 x i64> noundef %50)
  store <2 x i64> %51, ptr %15, align 16, !tbaa !11
  call void @llvm.lifetime.start.p0(i64 16, ptr %16) #9
  %52 = load <2 x i64>, ptr %12, align 16, !tbaa !11
  %53 = load <2 x i64>, ptr %8, align 16, !tbaa !11
  %54 = call <2 x i64> @_mm_and_si128(<2 x i64> noundef %52, <2 x i64> noundef %53)
  store <2 x i64> %54, ptr %16, align 16, !tbaa !11
  call void @llvm.lifetime.start.p0(i64 16, ptr %17) #9
  %55 = load <2 x i64>, ptr %15, align 16, !tbaa !11
  %56 = call <2 x i64> @_mm_srli_epi64(<2 x i64> noundef %55, i32 noundef 8)
  store <2 x i64> %56, ptr %17, align 16, !tbaa !11
  call void @llvm.lifetime.start.p0(i64 16, ptr %18) #9
  %57 = load <2 x i64>, ptr %16, align 16, !tbaa !11
  %58 = call <2 x i64> @_mm_srli_epi64(<2 x i64> noundef %57, i32 noundef 8)
  store <2 x i64> %58, ptr %18, align 16, !tbaa !11
  call void @llvm.lifetime.start.p0(i64 16, ptr %19) #9
  %59 = load <2 x i64>, ptr %13, align 16, !tbaa !11
  %60 = load <2 x i64>, ptr %17, align 16, !tbaa !11
  %61 = call <2 x i64> @_mm_or_si128(<2 x i64> noundef %59, <2 x i64> noundef %60)
  store <2 x i64> %61, ptr %19, align 16, !tbaa !11
  call void @llvm.lifetime.start.p0(i64 16, ptr %20) #9
  %62 = load <2 x i64>, ptr %14, align 16, !tbaa !11
  %63 = load <2 x i64>, ptr %18, align 16, !tbaa !11
  %64 = call <2 x i64> @_mm_or_si128(<2 x i64> noundef %62, <2 x i64> noundef %63)
  store <2 x i64> %64, ptr %20, align 16, !tbaa !11
  call void @llvm.lifetime.start.p0(i64 16, ptr %21) #9
  %65 = load <2 x i64>, ptr %19, align 16, !tbaa !11
  %66 = bitcast <2 x i64> %65 to <16 x i8>
  %67 = shufflevector <16 x i8> %66, <16 x i8> zeroinitializer, <16 x i32> <i32 8, i32 9, i32 10, i32 11, i32 12, i32 13, i32 14, i32 15, i32 16, i32 17, i32 18, i32 19, i32 20, i32 21, i32 22, i32 23>
  %68 = bitcast <16 x i8> %67 to <2 x i64>
  store <2 x i64> %68, ptr %21, align 16, !tbaa !11
  call void @llvm.lifetime.start.p0(i64 16, ptr %22) #9
  %69 = load <2 x i64>, ptr %20, align 16, !tbaa !11
  %70 = bitcast <2 x i64> %69 to <16 x i8>
  %71 = shufflevector <16 x i8> %70, <16 x i8> zeroinitializer, <16 x i32> <i32 8, i32 9, i32 10, i32 11, i32 12, i32 13, i32 14, i32 15, i32 16, i32 17, i32 18, i32 19, i32 20, i32 21, i32 22, i32 23>
  %72 = bitcast <16 x i8> %71 to <2 x i64>
  store <2 x i64> %72, ptr %22, align 16, !tbaa !11
  %73 = load ptr, ptr %6, align 8, !tbaa !33
  %74 = getelementptr inbounds i8, ptr %73, i64 0
  %75 = load <2 x i64>, ptr %19, align 16, !tbaa !11
  call void @_mm_storel_epi64(ptr noundef %74, <2 x i64> noundef %75)
  %76 = load ptr, ptr %6, align 8, !tbaa !33
  %77 = getelementptr inbounds i8, ptr %76, i64 6
  %78 = load <2 x i64>, ptr %21, align 16, !tbaa !11
  call void @_mm_storel_epi64(ptr noundef %77, <2 x i64> noundef %78)
  %79 = load ptr, ptr %6, align 8, !tbaa !33
  %80 = getelementptr inbounds i8, ptr %79, i64 12
  %81 = load <2 x i64>, ptr %20, align 16, !tbaa !11
  call void @_mm_storel_epi64(ptr noundef %80, <2 x i64> noundef %81)
  %82 = load ptr, ptr %6, align 8, !tbaa !33
  %83 = getelementptr inbounds i8, ptr %82, i64 18
  %84 = load <2 x i64>, ptr %22, align 16, !tbaa !11
  call void @_mm_storel_epi64(ptr noundef %83, <2 x i64> noundef %84)
  %85 = load ptr, ptr %6, align 8, !tbaa !33
  %86 = getelementptr inbounds i8, ptr %85, i64 24
  store ptr %86, ptr %6, align 8, !tbaa !33
  %87 = load i32, ptr %5, align 4, !tbaa !9
  %88 = sub nsw i32 %87, 8
  store i32 %88, ptr %5, align 4, !tbaa !9
  call void @llvm.lifetime.end.p0(i64 16, ptr %22) #9
  call void @llvm.lifetime.end.p0(i64 16, ptr %21) #9
  call void @llvm.lifetime.end.p0(i64 16, ptr %20) #9
  call void @llvm.lifetime.end.p0(i64 16, ptr %19) #9
  call void @llvm.lifetime.end.p0(i64 16, ptr %18) #9
  call void @llvm.lifetime.end.p0(i64 16, ptr %17) #9
  call void @llvm.lifetime.end.p0(i64 16, ptr %16) #9
  call void @llvm.lifetime.end.p0(i64 16, ptr %15) #9
  call void @llvm.lifetime.end.p0(i64 16, ptr %14) #9
  call void @llvm.lifetime.end.p0(i64 16, ptr %13) #9
  call void @llvm.lifetime.end.p0(i64 16, ptr %12) #9
  call void @llvm.lifetime.end.p0(i64 16, ptr %11) #9
  br label %31, !llvm.loop !39

89:                                               ; preds = %31
  %90 = load i32, ptr %5, align 4, !tbaa !9
  %91 = icmp sgt i32 %90, 0
  br i1 %91, label %92, label %96

92:                                               ; preds = %89
  %93 = load ptr, ptr %9, align 8, !tbaa !3
  %94 = load i32, ptr %5, align 4, !tbaa !9
  %95 = load ptr, ptr %6, align 8, !tbaa !33
  call void @VP8LConvertBGRAToBGR_C(ptr noundef %93, i32 noundef %94, ptr noundef %95)
  br label %96

96:                                               ; preds = %92, %89
  call void @llvm.lifetime.end.p0(i64 8, ptr %10) #9
  call void @llvm.lifetime.end.p0(i64 8, ptr %9) #9
  call void @llvm.lifetime.end.p0(i64 16, ptr %8) #9
  call void @llvm.lifetime.end.p0(i64 16, ptr %7) #9
  ret void
}