; Function Attrs: nounwind uwtable
define internal void @ConvertBGRAToBGR_SSE2(ptr noalias noundef %0, i32 noundef %1, ptr noalias noundef %2) #2 {
  %4 = mul nsw i32 %1, 3
  %5 = sext i32 %4 to i64
  %6 = getelementptr inbounds i8, ptr %2, i64 %5
  %.not38 = icmp slt i32 %1, 9
  br i1 %.not38, label %._crit_edge, label %.lr.ph

.lr.ph:                                           ; preds = %3, %.lr.ph
  %.041 = phi i32 [ %27, %.lr.ph ], [ %1, %3 ]
  %.03640 = phi ptr [ %26, %.lr.ph ], [ %2, %3 ]
  %.03739 = phi ptr [ %9, %.lr.ph ], [ %0, %3 ]
  %7 = getelementptr inbounds nuw i8, ptr %.03739, i64 16
  %8 = load <2 x i64>, ptr %.03739, align 1, !tbaa !9
  %9 = getelementptr inbounds nuw i8, ptr %.03739, i64 32
  %10 = load <2 x i64>, ptr %7, align 1, !tbaa !9
  %11 = and <2 x i64> %8, splat (i64 16777215)
  %12 = and <2 x i64> %10, splat (i64 16777215)
  %13 = lshr <2 x i64> %8, splat (i64 8)
  %14 = and <2 x i64> %13, splat (i64 281474959933440)
  %15 = lshr <2 x i64> %10, splat (i64 8)
  %16 = and <2 x i64> %15, splat (i64 281474959933440)
  %17 = or disjoint <2 x i64> %14, %11
  %18 = or disjoint <2 x i64> %16, %12
  %19 = extractelement <2 x i64> %17, i64 0
  store i64 %19, ptr %.03640, align 1, !tbaa !9
  %20 = getelementptr inbounds nuw i8, ptr %.03640, i64 6
  %21 = extractelement <2 x i64> %17, i64 1
  store i64 %21, ptr %20, align 1, !tbaa !9
  %22 = getelementptr inbounds nuw i8, ptr %.03640, i64 12
  %23 = extractelement <2 x i64> %18, i64 0
  store i64 %23, ptr %22, align 1, !tbaa !9
  %24 = getelementptr inbounds nuw i8, ptr %.03640, i64 18
  %25 = extractelement <2 x i64> %18, i64 1
  store i64 %25, ptr %24, align 1, !tbaa !9
  %26 = getelementptr inbounds nuw i8, ptr %.03640, i64 24
  %27 = add nsw i32 %.041, -8
  %28 = getelementptr inbounds nuw i8, ptr %.03640, i64 50
  %.not = icmp ugt ptr %28, %6
  br i1 %.not, label %._crit_edge, label %.lr.ph, !llvm.loop !35

._crit_edge:                                      ; preds = %.lr.ph, %3
  %.037.lcssa = phi ptr [ %0, %3 ], [ %9, %.lr.ph ]
  %.036.lcssa = phi ptr [ %2, %3 ], [ %26, %.lr.ph ]
  %.0.lcssa = phi i32 [ %1, %3 ], [ %27, %.lr.ph ]
  %29 = icmp sgt i32 %.0.lcssa, 0
  br i1 %29, label %30, label %31

30:                                               ; preds = %._crit_edge
  tail call void @VP8LConvertBGRAToBGR_C(ptr noundef %.037.lcssa, i32 noundef %.0.lcssa, ptr noundef %.036.lcssa) #7
  br label %31

31:                                               ; preds = %30, %._crit_edge
  ret void
}